; Function Attrs: mustprogress noreturn uwtable
define internal void @"_ZNSt17_Function_handlerIFvvEZZ4mainENK3$_0clERN2tf7SubflowEEUlvE_E9_M_invokeERKSt9_Any_data"(ptr nonnull readnone align 8 captures(none) %0) #30 align 2 personality ptr @__gxx_personality_v0 {
  %2 = tail call noundef nonnull align 8 dereferenceable(8) ptr @_ZSt16__ostream_insertIcSt11char_traitsIcEERSt13basic_ostreamIT_T0_ES6_PKS3_l(ptr noundef nonnull align 8 dereferenceable(8) @_ZSt4cout, ptr noundef nonnull @.str.62, i64 noundef 7)
  %3 = tail call ptr @__cxa_allocate_exception(i64 16) #34
  invoke void @_ZNSt13runtime_errorC1EPKc(ptr noundef nonnull align 8 dereferenceable(16) %3, ptr noundef nonnull @.str.63)
          to label %4 unwind label %5

4:                                                ; preds = %1
  tail call void @__cxa_throw(ptr nonnull %3, ptr nonnull @_ZTISt13runtime_error, ptr nonnull @_ZNSt13runtime_errorD1Ev) #37
  unreachable

5:                                                ; preds = %1
  %6 = landingpad { ptr, i32 }
          cleanup
  tail call void @__cxa_free_exception(ptr nonnull %3) #34
  resume { ptr, i32 } %6
}